target datalayout = "e-m:e-p270:32:32-p271:32:32-p272:64:64-i64:64-i128:128-f80:128-n8:16:32:64-S128"
target triple = "x86_64-pc-linux-gnu"

%struct._object = type { %union.anon, ptr }
%union.anon = type { i64 }
%struct._curses_panel_state = type { ptr, ptr }
%struct._typeobject = type { %struct.PyVarObject, ptr, i64, i64, ptr, i64, ptr, ptr, ptr, ptr, ptr, ptr, ptr, ptr, ptr, ptr, ptr, ptr, ptr, i64, ptr, ptr, ptr, ptr, i64, ptr, ptr, ptr, ptr, ptr, ptr, ptr, ptr, ptr, i64, ptr, ptr, ptr, ptr, ptr, ptr, ptr, ptr, ptr, ptr, ptr, i32, ptr, ptr, i8, i16 }
%struct.PyVarObject = type { %struct._object, i64 }
%struct._list_of_panels = type { ptr, ptr }
%struct.PyCursesPanelObject = type { %struct._object, ptr, ptr }
%struct.anon = type { i32, i32 }
%struct.PyCursesWindowObject = type { %struct._object, ptr, ptr }

@PyCurses_API = internal global ptr null, align 8
@_Py_NoneStruct = external global %struct._object, align 8
@PyExc_RuntimeError = external global ptr, align 8
@lop = internal global ptr null, align 8
@.str.25 = private unnamed_addr constant [8 x i8] c"replace\00", align 1
@.str.37 = private unnamed_addr constant [11 x i8] c"argument 1\00", align 1
@.str.38 = private unnamed_addr constant [39 x i8] c"replace_panel: can't find Panel Object\00", align 1
@.str.39 = private unnamed_addr constant [29 x i8] c"replace_panel() returned ERR\00", align 1

; Function Attrs: alwaysinline nounwind uwtable
define internal i32 @_Py_IsImmortal(ptr noundef %0) #4 {
  %2 = alloca ptr, align 8
  store ptr %0, ptr %2, align 8, !tbaa !3
  %3 = load ptr, ptr %2, align 8, !tbaa !3
  %4 = getelementptr inbounds nuw %struct._object, ptr %3, i32 0, i32 0
  %5 = getelementptr inbounds nuw %struct.anon, ptr %4, i32 0, i32 0
  %6 = load i32, ptr %5, align 8, !tbaa !41
  %7 = icmp slt i32 %6, 0
  %8 = zext i1 %7 to i32
  ret i32 %8
}

; Function Attrs: alwaysinline nounwind uwtable
define internal void @Py_INCREF(ptr noundef %0) #4 {
  %2 = alloca ptr, align 8
  %3 = alloca i32, align 4
  %4 = alloca i32, align 4
  store ptr %0, ptr %2, align 8, !tbaa !3
  call void @llvm.lifetime.start.p0(i64 4, ptr %3) #5
  %5 = load ptr, ptr %2, align 8, !tbaa !3
  %6 = getelementptr inbounds nuw %struct._object, ptr %5, i32 0, i32 0
  %7 = getelementptr inbounds nuw %struct.anon, ptr %6, i32 0, i32 0
  %8 = load i32, ptr %7, align 8, !tbaa !41
  store i32 %8, ptr %3, align 4, !tbaa !9
  %9 = load i32, ptr %3, align 4, !tbaa !9
  %10 = icmp slt i32 %9, 0
  br i1 %10, label %11, label %12

11:                                               ; preds = %1
  store i32 1, ptr %4, align 4
  br label %18

12:                                               ; preds = %1
  %13 = load i32, ptr %3, align 4, !tbaa !9
  %14 = add i32 %13, 1
  %15 = load ptr, ptr %2, align 8, !tbaa !3
  %16 = getelementptr inbounds nuw %struct._object, ptr %15, i32 0, i32 0
  %17 = getelementptr inbounds nuw %struct.anon, ptr %16, i32 0, i32 0
  store i32 %14, ptr %17, align 8, !tbaa !41
  store i32 0, ptr %4, align 4
  br label %18

18:                                               ; preds = %12, %11
  call void @llvm.lifetime.end.p0(i64 4, ptr %3) #5
  %19 = load i32, ptr %4, align 4
  switch i32 %19, label %21 [
    i32 0, label %20
    i32 1, label %20
  ]

20:                                               ; preds = %18, %18
  ret void

21:                                               ; preds = %18
  unreachable
}

; Function Attrs: alwaysinline nounwind uwtable
define internal void @Py_DECREF(ptr noundef %0) #4 {
  %2 = alloca ptr, align 8
  store ptr %0, ptr %2, align 8, !tbaa !3
  %3 = load ptr, ptr %2, align 8, !tbaa !3
  %4 = call i32 @_Py_IsImmortal(ptr noundef %3)
  %5 = icmp ne i32 %4, 0
  br i1 %5, label %6, label %7

6:                                                ; preds = %1
  br label %16

7:                                                ; preds = %1
  %8 = load ptr, ptr %2, align 8, !tbaa !3
  %9 = getelementptr inbounds nuw %struct._object, ptr %8, i32 0, i32 0
  %10 = getelementptr inbounds nuw %struct.anon, ptr %9, i32 0, i32 0
  %11 = load i32, ptr %10, align 8, !tbaa !41
  %12 = add i32 %11, -1
  store i32 %12, ptr %10, align 8, !tbaa !41
  %13 = icmp eq i32 %12, 0
  br i1 %13, label %14, label %16

14:                                               ; preds = %7
  %15 = load ptr, ptr %2, align 8, !tbaa !3
  call void @_Py_Dealloc(ptr noundef %15)
  br label %16

16:                                               ; preds = %6, %14, %7
  ret void
}

; Function Attrs: inlinehint nounwind uwtable
define internal ptr @_Py_NewRef(ptr noundef %0) #3 {
  %2 = alloca ptr, align 8
  store ptr %0, ptr %2, align 8, !tbaa !3
  %3 = load ptr, ptr %2, align 8, !tbaa !3
  call void @Py_INCREF(ptr noundef %3)
  %4 = load ptr, ptr %2, align 8, !tbaa !3
  ret ptr %4
}

; Function Attrs: nounwind uwtable
define internal ptr @find_po(ptr noundef %0) #0 {
  %2 = alloca ptr, align 8
  %3 = alloca ptr, align 8
  %4 = alloca ptr, align 8
  %5 = alloca i32, align 4
  store ptr %0, ptr %3, align 8, !tbaa !30
  call void @llvm.lifetime.start.p0(i64 8, ptr %4) #5
  %6 = load ptr, ptr @lop, align 8, !tbaa !32
  store ptr %6, ptr %4, align 8, !tbaa !32
  br label %7

7:                                                ; preds = %22, %1
  %8 = load ptr, ptr %4, align 8, !tbaa !32
  %9 = getelementptr inbounds nuw %struct._list_of_panels, ptr %8, i32 0, i32 0
  %10 = load ptr, ptr %9, align 8, !tbaa !34
  %11 = getelementptr inbounds nuw %struct.PyCursesPanelObject, ptr %10, i32 0, i32 1
  %12 = load ptr, ptr %11, align 8, !tbaa !36
  %13 = load ptr, ptr %3, align 8, !tbaa !30
  %14 = icmp ne ptr %12, %13
  br i1 %14, label %15, label %26

15:                                               ; preds = %7
  %16 = load ptr, ptr %4, align 8, !tbaa !32
  %17 = getelementptr inbounds nuw %struct._list_of_panels, ptr %16, i32 0, i32 1
  %18 = load ptr, ptr %17, align 8, !tbaa !38
  %19 = icmp eq ptr %18, null
  br i1 %19, label %20, label %21

20:                                               ; preds = %15
  store ptr null, ptr %2, align 8
  store i32 1, ptr %5, align 4
  br label %30

21:                                               ; preds = %15
  br label %22

22:                                               ; preds = %21
  %23 = load ptr, ptr %4, align 8, !tbaa !32
  %24 = getelementptr inbounds nuw %struct._list_of_panels, ptr %23, i32 0, i32 1
  %25 = load ptr, ptr %24, align 8, !tbaa !38
  store ptr %25, ptr %4, align 8, !tbaa !32
  br label %7, !llvm.loop !39

26:                                               ; preds = %7
  %27 = load ptr, ptr %4, align 8, !tbaa !32
  %28 = getelementptr inbounds nuw %struct._list_of_panels, ptr %27, i32 0, i32 0
  %29 = load ptr, ptr %28, align 8, !tbaa !34
  store ptr %29, ptr %2, align 8
  store i32 1, ptr %5, align 4
  br label %30

30:                                               ; preds = %26, %20
  call void @llvm.lifetime.end.p0(i64 8, ptr %4) #5
  %31 = load ptr, ptr %2, align 8
  ret ptr %31
}

; Function Attrs: inlinehint nounwind uwtable
define internal ptr @_Py_TYPE(ptr noundef %0) #3 {
  %2 = alloca ptr, align 8
  store ptr %0, ptr %2, align 8, !tbaa !3
  %3 = load ptr, ptr %2, align 8, !tbaa !3
  %4 = getelementptr inbounds nuw %struct._object, ptr %3, i32 0, i32 1
  %5 = load ptr, ptr %4, align 8, !tbaa !45
  ret ptr %5
}

; Function Attrs: inlinehint nounwind uwtable
define internal i32 @Py_IS_TYPE(ptr noundef %0, ptr noundef %1) #3 {
  %3 = alloca ptr, align 8
  %4 = alloca ptr, align 8
  store ptr %0, ptr %3, align 8, !tbaa !3
  store ptr %1, ptr %4, align 8, !tbaa !19
  %5 = load ptr, ptr %3, align 8, !tbaa !3
  %6 = call ptr @_Py_TYPE(ptr noundef %5)
  %7 = load ptr, ptr %4, align 8, !tbaa !19
  %8 = icmp eq ptr %6, %7
  %9 = zext i1 %8 to i32
  ret i32 %9
}

; Function Attrs: nounwind uwtable
define internal ptr @_curses_panel_panel_replace_impl(ptr noundef %0, ptr noundef %1, ptr noundef %2) #0 {
  %4 = alloca ptr, align 8
  %5 = alloca ptr, align 8
  %6 = alloca ptr, align 8
  %7 = alloca ptr, align 8
  %8 = alloca ptr, align 8
  %9 = alloca ptr, align 8
  %10 = alloca i32, align 4
  %11 = alloca i32, align 4
  %12 = alloca ptr, align 8
  %13 = alloca ptr, align 8
  store ptr %0, ptr %5, align 8, !tbaa !8
  store ptr %1, ptr %6, align 8, !tbaa !19
  store ptr %2, ptr %7, align 8, !tbaa !8
  call void @llvm.lifetime.start.p0(i64 8, ptr %8) #5
  %14 = load ptr, ptr %6, align 8, !tbaa !19
  %15 = call ptr @PyType_GetModuleState(ptr noundef %14)
  store ptr %15, ptr %8, align 8, !tbaa !8
  call void @llvm.lifetime.start.p0(i64 8, ptr %9) #5
  %16 = load ptr, ptr %5, align 8, !tbaa !8
  %17 = getelementptr inbounds nuw %struct.PyCursesPanelObject, ptr %16, i32 0, i32 1
  %18 = load ptr, ptr %17, align 8, !tbaa !36
  %19 = call ptr @find_po(ptr noundef %18)
  store ptr %19, ptr %9, align 8, !tbaa !8
  %20 = load ptr, ptr %9, align 8, !tbaa !8
  %21 = icmp eq ptr %20, null
  br i1 %21, label %22, label %24

22:                                               ; preds = %3
  %23 = load ptr, ptr @PyExc_RuntimeError, align 8, !tbaa !3
  call void @PyErr_SetString(ptr noundef %23, ptr noundef @.str.38)
  store ptr null, ptr %4, align 8
  store i32 1, ptr %10, align 4
  br label %51

24:                                               ; preds = %3
  call void @llvm.lifetime.start.p0(i64 4, ptr %11) #5
  %25 = load ptr, ptr %5, align 8, !tbaa !8
  %26 = getelementptr inbounds nuw %struct.PyCursesPanelObject, ptr %25, i32 0, i32 1
  %27 = load ptr, ptr %26, align 8, !tbaa !36
  %28 = load ptr, ptr %7, align 8, !tbaa !8
  %29 = getelementptr inbounds nuw %struct.PyCursesWindowObject, ptr %28, i32 0, i32 1
  %30 = load ptr, ptr %29, align 8, !tbaa !42
  %31 = call i32 @replace_panel(ptr noundef %27, ptr noundef %30)
  store i32 %31, ptr %11, align 4, !tbaa !9
  %32 = load i32, ptr %11, align 4, !tbaa !9
  %33 = icmp eq i32 %32, -1
  br i1 %33, label %34, label %38

34:                                               ; preds = %24
  %35 = load ptr, ptr %8, align 8, !tbaa !8
  %36 = getelementptr inbounds nuw %struct._curses_panel_state, ptr %35, i32 0, i32 0
  %37 = load ptr, ptr %36, align 8, !tbaa !11
  call void @PyErr_SetString(ptr noundef %37, ptr noundef @.str.39)
  store ptr null, ptr %4, align 8
  store i32 1, ptr %10, align 4
  br label %50

38:                                               ; preds = %24
  br label %39

39:                                               ; preds = %38
  call void @llvm.lifetime.start.p0(i64 8, ptr %12) #5
  %40 = load ptr, ptr %9, align 8, !tbaa !8
  %41 = getelementptr inbounds nuw %struct.PyCursesPanelObject, ptr %40, i32 0, i32 2
  store ptr %41, ptr %12, align 8, !tbaa !8
  call void @llvm.lifetime.start.p0(i64 8, ptr %13) #5
  %42 = load ptr, ptr %12, align 8, !tbaa !8
  %43 = load ptr, ptr %42, align 8, !tbaa !8
  store ptr %43, ptr %13, align 8, !tbaa !8
  %44 = load ptr, ptr %7, align 8, !tbaa !8
  %45 = call ptr @_Py_NewRef(ptr noundef %44)
  %46 = load ptr, ptr %12, align 8, !tbaa !8
  store ptr %45, ptr %46, align 8, !tbaa !8
  %47 = load ptr, ptr %13, align 8, !tbaa !8
  call void @Py_DECREF(ptr noundef %47)
  call void @llvm.lifetime.end.p0(i64 8, ptr %13) #5
  call void @llvm.lifetime.end.p0(i64 8, ptr %12) #5
  br label %48

48:                                               ; preds = %39
  br label %49

49:                                               ; preds = %48
  store ptr @_Py_NoneStruct, ptr %4, align 8
  store i32 1, ptr %10, align 4
  br label %50

50:                                               ; preds = %49, %34
  call void @llvm.lifetime.end.p0(i64 4, ptr %11) #5
  br label %51

51:                                               ; preds = %50, %22
  call void @llvm.lifetime.end.p0(i64 8, ptr %9) #5
  call void @llvm.lifetime.end.p0(i64 8, ptr %8) #5
  %52 = load ptr, ptr %4, align 8
  ret ptr %52
}

; Function Attrs: inlinehint nounwind uwtable
define internal i32 @PyObject_TypeCheck(ptr noundef %0, ptr noundef %1) #3 {
  %3 = alloca ptr, align 8
  %4 = alloca ptr, align 8
  store ptr %0, ptr %3, align 8, !tbaa !3
  store ptr %1, ptr %4, align 8, !tbaa !19
  %5 = load ptr, ptr %3, align 8, !tbaa !3
  %6 = load ptr, ptr %4, align 8, !tbaa !19
  %7 = call i32 @Py_IS_TYPE(ptr noundef %5, ptr noundef %6)
  %8 = icmp ne i32 %7, 0
  br i1 %8, label %15, label %9

9:                                                ; preds = %2
  %10 = load ptr, ptr %3, align 8, !tbaa !3
  %11 = call ptr @_Py_TYPE(ptr noundef %10)
  %12 = load ptr, ptr %4, align 8, !tbaa !19
  %13 = call i32 @PyType_IsSubtype(ptr noundef %11, ptr noundef %12)
  %14 = icmp ne i32 %13, 0
  br label %15

15:                                               ; preds = %9, %2
  %16 = phi i1 [ true, %2 ], [ %14, %9 ]
  %17 = zext i1 %16 to i32
  ret i32 %17
}

; Function Attrs: nounwind uwtable
define internal ptr @_curses_panel_panel_replace(ptr noundef %0, ptr noundef %1, ptr noundef %2, i64 noundef %3, ptr noundef %4) #0 {
  %6 = alloca ptr, align 8
  %7 = alloca ptr, align 8
  %8 = alloca ptr, align 8
  %9 = alloca i64, align 8
  %10 = alloca ptr, align 8
  %11 = alloca ptr, align 8
  %12 = alloca [1 x ptr], align 8
  %13 = alloca ptr, align 8
  store ptr %0, ptr %6, align 8, !tbaa !3
  store ptr %1, ptr %7, align 8, !tbaa !19
  store ptr %2, ptr %8, align 8, !tbaa !15
  store i64 %3, ptr %9, align 8, !tbaa !48
  store ptr %4, ptr %10, align 8, !tbaa !3
  call void @llvm.lifetime.start.p0(i64 8, ptr %11) #5
  store ptr null, ptr %11, align 8, !tbaa !3
  call void @llvm.lifetime.start.p0(i64 8, ptr %12) #5
  call void @llvm.lifetime.start.p0(i64 8, ptr %13) #5
  %14 = load ptr, ptr %10, align 8, !tbaa !3
  %15 = icmp eq ptr %14, null
  br i1 %15, label %16, label %27

16:                                               ; preds = %5
  %17 = load i64, ptr %9, align 8, !tbaa !48
  %18 = icmp sle i64 1, %17
  br i1 %18, label %19, label %27

19:                                               ; preds = %16
  %20 = load i64, ptr %9, align 8, !tbaa !48
  %21 = icmp sle i64 %20, 1
  br i1 %21, label %22, label %27

22:                                               ; preds = %19
  %23 = load ptr, ptr %8, align 8, !tbaa !15
  %24 = icmp ne ptr %23, null
  br i1 %24, label %25, label %27

25:                                               ; preds = %22
  %26 = load ptr, ptr %8, align 8, !tbaa !15
  br label %33

27:                                               ; preds = %22, %19, %16, %5
  %28 = load ptr, ptr %8, align 8, !tbaa !15
  %29 = load i64, ptr %9, align 8, !tbaa !48
  %30 = load ptr, ptr %10, align 8, !tbaa !3
  %31 = getelementptr inbounds [1 x ptr], ptr %12, i64 0, i64 0
  %32 = call ptr @_PyArg_UnpackKeywords(ptr noundef %28, i64 noundef %29, ptr noundef null, ptr noundef %30, ptr noundef @_curses_panel_panel_replace._parser, i32 noundef 1, i32 noundef 1, i32 noundef 0, i32 noundef 0, ptr noundef %31)
  br label %33

33:                                               ; preds = %27, %25
  %34 = phi ptr [ %26, %25 ], [ %32, %27 ]
  store ptr %34, ptr %8, align 8, !tbaa !15
  %35 = load ptr, ptr %8, align 8, !tbaa !15
  %36 = icmp ne ptr %35, null
  br i1 %36, label %38, label %37

37:                                               ; preds = %33
  br label %64

38:                                               ; preds = %33
  %39 = load ptr, ptr %8, align 8, !tbaa !15
  %40 = getelementptr ptr, ptr %39, i64 0
  %41 = load ptr, ptr %40, align 8, !tbaa !3
  %42 = load ptr, ptr @PyCurses_API, align 8, !tbaa !8
  %43 = getelementptr ptr, ptr %42, i64 0
  %44 = load ptr, ptr %43, align 8, !tbaa !8
  %45 = call i32 @PyObject_TypeCheck(ptr noundef %41, ptr noundef %44)
  %46 = icmp ne i32 %45, 0
  br i1 %46, label %56, label %47

47:                                               ; preds = %38
  %48 = load ptr, ptr @PyCurses_API, align 8, !tbaa !8
  %49 = getelementptr ptr, ptr %48, i64 0
  %50 = load ptr, ptr %49, align 8, !tbaa !8
  %51 = getelementptr inbounds nuw %struct._typeobject, ptr %50, i32 0, i32 1
  %52 = load ptr, ptr %51, align 8, !tbaa !20
  %53 = load ptr, ptr %8, align 8, !tbaa !15
  %54 = getelementptr ptr, ptr %53, i64 0
  %55 = load ptr, ptr %54, align 8, !tbaa !3
  call void @_PyArg_BadArgument(ptr noundef @.str.25, ptr noundef @.str.37, ptr noundef %52, ptr noundef %55)
  br label %64

56:                                               ; preds = %38
  %57 = load ptr, ptr %8, align 8, !tbaa !15
  %58 = getelementptr ptr, ptr %57, i64 0
  %59 = load ptr, ptr %58, align 8, !tbaa !3
  store ptr %59, ptr %13, align 8, !tbaa !8
  %60 = load ptr, ptr %6, align 8, !tbaa !3
  %61 = load ptr, ptr %7, align 8, !tbaa !19
  %62 = load ptr, ptr %13, align 8, !tbaa !8
  %63 = call ptr @_curses_panel_panel_replace_impl(ptr noundef %60, ptr noundef %61, ptr noundef %62)
  store ptr %63, ptr %11, align 8, !tbaa !3
  br label %64

64:                                               ; preds = %56, %47, %37
  %65 = load ptr, ptr %11, align 8, !tbaa !3
  call void @llvm.lifetime.end.p0(i64 8, ptr %13) #5
  call void @llvm.lifetime.end.p0(i64 8, ptr %12) #5
  call void @llvm.lifetime.end.p0(i64 8, ptr %11) #5
  ret ptr %65
}