; Function Attrs: nounwind uwtable
define internal noundef ptr @_curses_panel_panel_replace(ptr noundef readonly captures(none) %0, ptr noundef %1, ptr noundef %2, i64 noundef %3, ptr noundef %4) #0 {
  %6 = alloca [1 x ptr], align 8
  call void @llvm.lifetime.start.p0(i64 8, ptr nonnull %6) #4
  %7 = icmp eq ptr %4, null
  %8 = icmp eq i64 %3, 1
  %or.cond3 = and i1 %8, %7
  %9 = icmp ne ptr %2, null
  %or.cond5 = and i1 %9, %or.cond3
  br i1 %or.cond5, label %.thread, label %10

10:                                               ; preds = %5
  %11 = call ptr @_PyArg_UnpackKeywords(ptr noundef %2, i64 noundef %3, ptr noundef null, ptr noundef %4, ptr noundef nonnull @_curses_panel_panel_replace._parser, i32 noundef 1, i32 noundef 1, i32 noundef 0, i32 noundef 0, ptr noundef nonnull %6) #4
  %.not = icmp eq ptr %11, null
  br i1 %.not, label %_curses_panel_panel_replace_impl.exit, label %.thread

.thread:                                          ; preds = %5, %10
  %12 = phi ptr [ %11, %10 ], [ %2, %5 ]
  %13 = load ptr, ptr %12, align 8, !tbaa !13
  %14 = load ptr, ptr @PyCurses_API, align 8, !tbaa !16
  %15 = load ptr, ptr %14, align 8, !tbaa !16
  %16 = getelementptr i8, ptr %13, i64 8
  %.val = load ptr, ptr %16, align 8, !tbaa !3
  %.not.i = icmp eq ptr %.val, %15
  br i1 %.not.i, label %PyObject_TypeCheck.exit.thread, label %PyObject_TypeCheck.exit

PyObject_TypeCheck.exit:                          ; preds = %.thread
  %17 = call i32 @PyType_IsSubtype(ptr noundef %.val, ptr noundef %15) #4
  %.not25 = icmp eq i32 %17, 0
  %.pre = load ptr, ptr %12, align 8, !tbaa !13
  br i1 %.not25, label %18, label %PyObject_TypeCheck.exit.thread

18:                                               ; preds = %PyObject_TypeCheck.exit
  %19 = load ptr, ptr @PyCurses_API, align 8, !tbaa !16
  %20 = load ptr, ptr %19, align 8, !tbaa !16
  %21 = getelementptr inbounds nuw i8, ptr %20, i64 24
  %22 = load ptr, ptr %21, align 8, !tbaa !27
  call void @_PyArg_BadArgument(ptr noundef nonnull @.str.25, ptr noundef nonnull @.str.37, ptr noundef %22, ptr noundef %.pre) #4
  br label %_curses_panel_panel_replace_impl.exit

PyObject_TypeCheck.exit.thread:                   ; preds = %.thread, %PyObject_TypeCheck.exit
  %23 = phi ptr [ %13, %.thread ], [ %.pre, %PyObject_TypeCheck.exit ]
  %24 = call ptr @PyType_GetModuleState(ptr noundef %1) #4
  %25 = getelementptr inbounds nuw i8, ptr %0, i64 16
  %26 = load ptr, ptr %25, align 8, !tbaa !21
  %27 = load ptr, ptr @lop, align 8, !tbaa !17
  br label %28

28:                                               ; preds = %32, %PyObject_TypeCheck.exit.thread
  %.0.i.i = phi ptr [ %27, %PyObject_TypeCheck.exit.thread ], [ %34, %32 ]
  %29 = load ptr, ptr %.0.i.i, align 8, !tbaa !19
  %30 = getelementptr inbounds nuw i8, ptr %29, i64 16
  %31 = load ptr, ptr %30, align 8, !tbaa !21
  %.not.i13.i = icmp eq ptr %31, %26
  br i1 %.not.i13.i, label %find_po.exit.i, label %32

32:                                               ; preds = %28
  %33 = getelementptr inbounds nuw i8, ptr %.0.i.i, i64 8
  %34 = load ptr, ptr %33, align 8, !tbaa !24
  %35 = icmp eq ptr %34, null
  br i1 %35, label %36, label %28, !llvm.loop !25

36:                                               ; preds = %32
  %37 = load ptr, ptr @PyExc_RuntimeError, align 8, !tbaa !13
  call void @PyErr_SetString(ptr noundef %37, ptr noundef nonnull @.str.38) #4
  br label %_curses_panel_panel_replace_impl.exit

find_po.exit.i:                                   ; preds = %28
  %38 = getelementptr inbounds nuw i8, ptr %23, i64 16
  %39 = load ptr, ptr %38, align 8, !tbaa !37
  %40 = call i32 @replace_panel(ptr noundef %26, ptr noundef %39) #4
  %41 = icmp eq i32 %40, -1
  br i1 %41, label %42, label %44

42:                                               ; preds = %find_po.exit.i
  %43 = load ptr, ptr %24, align 8, !tbaa !9
  call void @PyErr_SetString(ptr noundef %43, ptr noundef nonnull @.str.39) #4
  br label %_curses_panel_panel_replace_impl.exit

44:                                               ; preds = %find_po.exit.i
  %45 = getelementptr inbounds nuw i8, ptr %29, i64 24
  %46 = load ptr, ptr %45, align 8, !tbaa !16
  %47 = load i32, ptr %23, align 8, !tbaa !14
  %48 = icmp slt i32 %47, 0
  br i1 %48, label %_Py_NewRef.exit.i, label %49

49:                                               ; preds = %44
  %50 = add nuw i32 %47, 1
  store i32 %50, ptr %23, align 8, !tbaa !14
  br label %_Py_NewRef.exit.i

_Py_NewRef.exit.i:                                ; preds = %49, %44
  store ptr %23, ptr %45, align 8, !tbaa !16
  %51 = load i32, ptr %46, align 8, !tbaa !14
  %.not.i.i = icmp sgt i32 %51, -1
  br i1 %.not.i.i, label %52, label %_curses_panel_panel_replace_impl.exit

52:                                               ; preds = %_Py_NewRef.exit.i
  %53 = add nsw i32 %51, -1
  store i32 %53, ptr %46, align 8, !tbaa !14
  %54 = icmp eq i32 %53, 0
  br i1 %54, label %55, label %_curses_panel_panel_replace_impl.exit

55:                                               ; preds = %52
  call void @_Py_Dealloc(ptr noundef nonnull %46) #4
  br label %_curses_panel_panel_replace_impl.exit

_curses_panel_panel_replace_impl.exit:            ; preds = %55, %52, %_Py_NewRef.exit.i, %42, %36, %10, %18
  %.0 = phi ptr [ null, %18 ], [ null, %10 ], [ null, %36 ], [ null, %42 ], [ @_Py_NoneStruct, %_Py_NewRef.exit.i ], [ @_Py_NoneStruct, %52 ], [ @_Py_NoneStruct, %55 ]
  call void @llvm.lifetime.end.p0(i64 8, ptr nonnull %6) #4
  ret ptr %.0
}